target datalayout = "e-m:e-p270:32:32-p271:32:32-p272:64:64-i64:64-i128:128-f80:128-n8:16:32:64-S128"
target triple = "x86_64-pc-linux-gnu"

%struct.MvcCoverStruct = type { i32, i32, i32, %struct.MvcListStruct, ptr, i32, ptr, ptr, ptr }
%struct.MvcListStruct = type { ptr, ptr, i32 }

; Function Attrs: nounwind uwtable
define void @Mvc_CoverAllocateArrayLits(ptr noundef %0) #0 {
  %2 = alloca ptr, align 8
  store ptr %0, ptr %2, align 8, !tbaa !13
  %3 = load ptr, ptr %2, align 8, !tbaa !13
  %4 = getelementptr inbounds nuw %struct.MvcCoverStruct, ptr %3, i32 0, i32 6
  %5 = load ptr, ptr %4, align 8, !tbaa !30
  %6 = icmp eq ptr %5, null
  br i1 %6, label %7, label %17

7:                                                ; preds = %1
  %8 = load ptr, ptr %2, align 8, !tbaa !13
  %9 = getelementptr inbounds nuw %struct.MvcCoverStruct, ptr %8, i32 0, i32 2
  %10 = load i32, ptr %9, align 8, !tbaa !21
  %11 = sext i32 %10 to i64
  %12 = mul i64 %11, 4
  %13 = mul i64 1, %12
  %14 = call noalias ptr @malloc(i64 noundef %13) #6
  %15 = load ptr, ptr %2, align 8, !tbaa !13
  %16 = getelementptr inbounds nuw %struct.MvcCoverStruct, ptr %15, i32 0, i32 6
  store ptr %14, ptr %16, align 8, !tbaa !30
  br label %17

17:                                               ; preds = %7, %1
  ret void
}